target datalayout = "e-m:e-p270:32:32-p271:32:32-p272:64:64-i64:64-i128:128-f80:128-n8:16:32:64-S128"
target triple = "x86_64-unknown-linux-gnu"

%class.ptr_vector = type { %class.vector }
%class.vector = type { ptr }
%class.vector.198 = type { ptr }
%"class.nla::cross_nested" = type { ptr, %"class.std::function", %"class.std::function.18", %"class.std::function.21", i8, %class.ptr_vector, i32, i8, %"class.std::function.23", ptr }
%"class.std::function" = type { %"class.std::_Function_base", ptr }
%"class.std::_Function_base" = type { %"union.std::_Any_data", ptr }
%"union.std::_Any_data" = type { %"union.std::_Nocopy_types" }
%"union.std::_Nocopy_types" = type { { i64, i64 } }
%"class.std::function.18" = type { %"class.std::_Function_base", ptr }
%"class.std::function.21" = type { %"class.std::_Function_base", ptr }
%"class.std::function.23" = type { %"class.std::_Function_base", ptr }

; Function Attrs: mustprogress nounwind uwtable
define linkonce_odr hidden void @_ZN6vectorIPPN3nla3nexELb1EjEC2Ev(ptr noundef nonnull align 8 dereferenceable(8) %this) unnamed_addr #4 comdat align 2 {
entry:
  %this.addr = alloca ptr, align 8
  store ptr %this, ptr %this.addr, align 8
  %this1 = load ptr, ptr %this.addr, align 8
  %m_data = getelementptr inbounds %class.vector.198, ptr %this1, i32 0, i32 0
  store ptr null, ptr %m_data, align 8
  ret void
}

; Function Attrs: mustprogress nounwind uwtable
define linkonce_odr hidden noundef zeroext i1 @_ZNK3nla12cross_nested4doneEv(ptr noundef nonnull align 8 dereferenceable(168) %this) #4 comdat align 2 {
entry:
  %this.addr = alloca ptr, align 8
  store ptr %this, ptr %this.addr, align 8
  %this1 = load ptr, ptr %this.addr, align 8
  %m_done = getelementptr inbounds %"class.nla::cross_nested", ptr %this1, i32 0, i32 4
  %0 = load i8, ptr %m_done, align 8
  %tobool = trunc i8 %0 to i1
  ret i1 %tobool
}

; Function Attrs: mustprogress uwtable
define linkonce_odr hidden void @_ZN3nla12cross_nested3runEPNS_3nexE(ptr noundef nonnull align 8 dereferenceable(168) %this, ptr noundef %e) #5 comdat align 2 personality ptr @__gxx_personality_v0 {
entry:
  %this.addr = alloca ptr, align 8
  %e.addr = alloca ptr, align 8
  %front = alloca %class.vector.198, align 8
  %exn.slot = alloca ptr, align 8
  %ehselector.slot = alloca i32, align 4
  store ptr %this, ptr %this.addr, align 8
  store ptr %e, ptr %e.addr, align 8
  %this1 = load ptr, ptr %this.addr, align 8
  %0 = load ptr, ptr %e.addr, align 8
  %m_e = getelementptr inbounds %"class.nla::cross_nested", ptr %this1, i32 0, i32 0
  store ptr %0, ptr %m_e, align 8
  call void @_ZN6vectorIPPN3nla3nexELb1EjEC2Ev(ptr noundef nonnull align 8 dereferenceable(8) %front) #3
  %m_e2 = getelementptr inbounds %"class.nla::cross_nested", ptr %this1, i32 0, i32 0
  invoke void @_ZN3nla12cross_nested26explore_expr_on_front_elemEPPNS_3nexER6vectorIS3_Lb1EjE(ptr noundef nonnull align 8 dereferenceable(168) %this1, ptr noundef %m_e2, ptr noundef nonnull align 8 dereferenceable(8) %front)
          to label %invoke.cont unwind label %lpad

invoke.cont:                                      ; preds = %entry
  call void @_ZN6vectorIPPN3nla3nexELb1EjED2Ev(ptr noundef nonnull align 8 dereferenceable(8) %front) #3
  ret void

lpad:                                             ; preds = %entry
  %1 = landingpad { ptr, i32 }
          cleanup
  %2 = extractvalue { ptr, i32 } %1, 0
  store ptr %2, ptr %exn.slot, align 8
  %3 = extractvalue { ptr, i32 } %1, 1
  store i32 %3, ptr %ehselector.slot, align 4
  call void @_ZN6vectorIPPN3nla3nexELb1EjED2Ev(ptr noundef nonnull align 8 dereferenceable(8) %front) #3
  br label %eh.resume

eh.resume:                                        ; preds = %lpad
  %exn = load ptr, ptr %exn.slot, align 8
  %sel = load i32, ptr %ehselector.slot, align 4
  %lpad.val = insertvalue { ptr, i32 } poison, ptr %exn, 0
  %lpad.val3 = insertvalue { ptr, i32 } %lpad.val, i32 %sel, 1
  resume { ptr, i32 } %lpad.val3
}

; Function Attrs: mustprogress uwtable
define hidden noundef zeroext i1 @_ZN3nla6horner14lemmas_on_exprERNS_12cross_nestedEPNS_7nex_sumE(ptr noundef nonnull align 8 dereferenceable(204) %this, ptr noundef nonnull align 8 dereferenceable(168) %cn, ptr noundef %e) #5 align 2 {
entry:
  %this.addr = alloca ptr, align 8
  %cn.addr = alloca ptr, align 8
  %e.addr = alloca ptr, align 8
  store ptr %this, ptr %this.addr, align 8
  store ptr %cn, ptr %cn.addr, align 8
  store ptr %e, ptr %e.addr, align 8
  %0 = load ptr, ptr %cn.addr, align 8
  %1 = load ptr, ptr %e.addr, align 8
  call void @_ZN3nla12cross_nested3runEPNS_3nexE(ptr noundef nonnull align 8 dereferenceable(168) %0, ptr noundef %1)
  %2 = load ptr, ptr %cn.addr, align 8
  %call = call noundef zeroext i1 @_ZNK3nla12cross_nested4doneEv(ptr noundef nonnull align 8 dereferenceable(168) %2)
  ret i1 %call
}