; Function Attrs: mustprogress uwtable
define hidden noundef zeroext i1 @_ZN3nla6horner14lemmas_on_exprERNS_12cross_nestedEPNS_7nex_sumE(ptr nocapture noundef nonnull readnone align 8 dereferenceable(204) %this, ptr noundef nonnull align 8 dereferenceable(168) %cn, ptr noundef %e) local_unnamed_addr #3 align 2 personality ptr @__gxx_personality_v0 {
entry:
  %front.i = alloca %class.vector.198, align 8
  call void @llvm.lifetime.start.p0(i64 8, ptr nonnull %front.i)
  store ptr %e, ptr %cn, align 8
  store ptr null, ptr %front.i, align 8
  invoke void @_ZN3nla12cross_nested26explore_expr_on_front_elemEPPNS_3nexER6vectorIS3_Lb1EjE(ptr noundef nonnull align 8 dereferenceable(168) %cn, ptr noundef nonnull %cn, ptr noundef nonnull align 8 dereferenceable(8) %front.i)
          to label %invoke.cont.i unwind label %lpad.i

invoke.cont.i:                                    ; preds = %entry
  %0 = load ptr, ptr %front.i, align 8
  %tobool.not.i.i.i = icmp eq ptr %0, null
  br i1 %tobool.not.i.i.i, label %_ZN3nla12cross_nested3runEPNS_3nexE.exit, label %if.then.i.i.i

if.then.i.i.i:                                    ; preds = %invoke.cont.i
  %add.ptr.i.i.i.i = getelementptr inbounds i8, ptr %0, i64 -8
  invoke void @_ZN6memory10deallocateEPv(ptr noundef nonnull %add.ptr.i.i.i.i)
          to label %_ZN3nla12cross_nested3runEPNS_3nexE.exit unwind label %terminate.lpad.i.i

terminate.lpad.i.i:                               ; preds = %if.then.i.i.i
  %1 = landingpad { ptr, i32 }
          catch ptr null
  %2 = extractvalue { ptr, i32 } %1, 0
  call void @__clang_call_terminate(ptr %2) #19
  unreachable

lpad.i:                                           ; preds = %entry
  %3 = landingpad { ptr, i32 }
          cleanup
  call void @_ZN6vectorIPPN3nla3nexELb1EjED2Ev(ptr noundef nonnull align 8 dereferenceable(8) %front.i) #20
  resume { ptr, i32 } %3

_ZN3nla12cross_nested3runEPNS_3nexE.exit:         ; preds = %invoke.cont.i, %if.then.i.i.i
  call void @llvm.lifetime.end.p0(i64 8, ptr nonnull %front.i)
  %m_done.i = getelementptr inbounds i8, ptr %cn, i64 104
  %4 = load i8, ptr %m_done.i, align 8
  %5 = and i8 %4, 1
  %tobool.i = icmp ne i8 %5, 0
  ret i1 %tobool.i
}